	.text
	.syntax unified
	.eabi_attribute	67, "2.09"	@ Tag_conformance
	.cpu	cortex-m0
	.eabi_attribute	6, 12	@ Tag_CPU_arch
	.eabi_attribute	7, 77	@ Tag_CPU_arch_profile
	.eabi_attribute	8, 0	@ Tag_ARM_ISA_use
	.eabi_attribute	9, 1	@ Tag_THUMB_ISA_use
	.eabi_attribute	34, 0	@ Tag_CPU_unaligned_access
	.eabi_attribute	17, 1	@ Tag_ABI_PCS_GOT_use
	.eabi_attribute	20, 2	@ Tag_ABI_FP_denormal
	.eabi_attribute	21, 0	@ Tag_ABI_FP_exceptions
	.eabi_attribute	23, 1	@ Tag_ABI_FP_number_model
	.eabi_attribute	24, 1	@ Tag_ABI_align_needed
	.eabi_attribute	25, 1	@ Tag_ABI_align_preserved
	.eabi_attribute	38, 1	@ Tag_ABI_FP_16bit_format
	.eabi_attribute	18, 2	@ Tag_ABI_PCS_wchar_t
	.eabi_attribute	26, 1	@ Tag_ABI_enum_size
	.eabi_attribute	14, 0	@ Tag_ABI_PCS_R9_use
	.file	"main.c"
	.file	1 "C:\\Keil_v5\\ARM\\ARMCLANG\\Bin\\..\\include" "stdint.h"
	.file	2 "N:\\A IC-NuvoTon Technology\\Nuvoton\\Board Support Package (BSP)\\SampleCode\\Level1_Training\\Level1_GPIO_Ctrl\\KEIL" "../main.c"
	.file	3 "N:\\A IC-NuvoTon Technology\\Nuvoton\\Board Support Package (BSP)\\SampleCode\\Level1_Training\\Level1_GPIO_Ctrl\\KEIL" "../../../../Library/Device/Nuvoton/M031/Include/M031Series.h"
	.file	4 "N:\\A IC-NuvoTon Technology\\Nuvoton\\Board Support Package (BSP)\\SampleCode\\Level1_Training\\Level1_GPIO_Ctrl\\KEIL" "../../../../Library/Device/Nuvoton/M031/Include/clk_reg.h"
	.file	5 "N:\\A IC-NuvoTon Technology\\Nuvoton\\Board Support Package (BSP)\\SampleCode\\Level1_Training\\Level1_GPIO_Ctrl\\KEIL" "../../../../Library/Device/Nuvoton/M031/Include/sys_reg.h"
	.file	6 "N:\\A IC-NuvoTon Technology\\Nuvoton\\Board Support Package (BSP)\\SampleCode\\Level1_Training\\Level1_GPIO_Ctrl\\KEIL" "../../../../Library/Device/Nuvoton/M031/Include/uart_reg.h"
	.file	7 "N:\\A IC-NuvoTon Technology\\Nuvoton\\Board Support Package (BSP)\\SampleCode\\Level1_Training\\Level1_GPIO_Ctrl\\KEIL" "../../../../Library/Device/Nuvoton/M031/Include/gpio_reg.h"
	.file	8 "N:\\A IC-NuvoTon Technology\\Nuvoton\\Board Support Package (BSP)\\SampleCode\\Level1_Training\\Level1_GPIO_Ctrl\\KEIL" "../../../../Library/CMSIS/Include\\core_cm0.h"
	.section	.text.SYS_Init,"ax",%progbits
	.hidden	SYS_Init                        @ -- Begin function SYS_Init
	.globl	SYS_Init
	.p2align	2
	.type	SYS_Init,%function
	.code	16                              @ @SYS_Init
	.thumb_func
SYS_Init:
.Lfunc_begin0:
	.loc	2 26 0                          @ ../main.c:26:0
	.fnstart
	.cfi_sections .debug_frame
	.cfi_startproc
@ %bb.0:
	.save	{r4, lr}
	push	{r4, lr}
	.cfi_def_cfa_offset 8
	.cfi_offset lr, -4
	.cfi_offset r4, -8
	movs	r4, #1
.Ltmp0:
	.loc	2 28 5 prologue_end             @ ../main.c:28:5
	mov	r0, r4
	bl	CLK_EnableXtalRC
.Ltmp1:
	.loc	2 31 5                          @ ../main.c:31:5
	mov	r0, r4
	bl	CLK_WaitClockReady
.Ltmp2:
	.loc	2 0 5 is_stmt 0                 @ ../main.c:0:5
	movs	r4, #8
	.loc	2 34 5 is_stmt 1                @ ../main.c:34:5
	mov	r0, r4
	bl	CLK_EnableXtalRC
.Ltmp3:
	.loc	2 37 5                          @ ../main.c:37:5
	mov	r0, r4
	bl	CLK_WaitClockReady
.Ltmp4:
	.loc	2 0 5 is_stmt 0                 @ ../main.c:0:5
	ldr	r0, __arm_cp.0_0
	.loc	2 40 5 is_stmt 1                @ ../main.c:40:5
	bl	CLK_SetCoreClock
.Ltmp5:
	.loc	2 0 5 is_stmt 0                 @ ../main.c:0:5
	ldr	r0, __arm_cp.0_1
	movs	r1, #17
	.loc	2 43 18 is_stmt 1               @ ../main.c:43:18
	str	r1, [r0]
	ldr	r4, __arm_cp.0_2
	.loc	2 46 5                          @ ../main.c:46:5
	mov	r0, r4
	bl	CLK_EnableModuleClock
.Ltmp6:
	.loc	2 0 5 is_stmt 0                 @ ../main.c:0:5
	movs	r1, #0
	.loc	2 49 5 is_stmt 1                @ ../main.c:49:5
	mov	r0, r4
	mov	r2, r1
	bl	CLK_SetModuleClock
.Ltmp7:
	.loc	2 50 1 epilogue_begin           @ ../main.c:50:1
	pop	{r4, pc}
.Ltmp8:
	.p2align	2
@ %bb.1:
	.loc	2 0 1 is_stmt 0                 @ ../main.c:0:1
__arm_cp.0_0:
	.long	48000000                        @ 0x2dc6c00
.Lcpi_end0:
	.size	__arm_cp.0_0, .Lcpi_end0-__arm_cp.0_0
__arm_cp.0_1:
	.long	1073742388                      @ 0x40000234
.Lcpi_end1:
	.size	__arm_cp.0_1, .Lcpi_end1-__arm_cp.0_1
__arm_cp.0_2:
	.long	1602239760                      @ 0x5f803d10
.Lcpi_end2:
	.size	__arm_cp.0_2, .Lcpi_end2-__arm_cp.0_2
.Lfunc_end0:
	.size	SYS_Init, .Lfunc_end0-SYS_Init
	.cfi_endproc
	.cantunwind
	.fnend
                                        @ -- End function
	.section	.text.UART0_Init,"ax",%progbits
	.hidden	UART0_Init                      @ -- Begin function UART0_Init
	.globl	UART0_Init
	.p2align	2
	.type	UART0_Init,%function
	.code	16                              @ @UART0_Init
	.thumb_func
UART0_Init:
.Lfunc_begin1:
	.loc	2 53 0 is_stmt 1                @ ../main.c:53:0
	.fnstart
	.cfi_startproc
@ %bb.0:
	.save	{r7, lr}
	push	{r7, lr}
	.cfi_def_cfa_offset 8
	.cfi_offset lr, -4
	.cfi_offset r7, -8
	movs	r0, #255
	lsls	r0, r0, #16
	ldr	r1, __arm_cp.1_0
.Ltmp9:
	.loc	2 55 27 prologue_end            @ ../main.c:55:27
	ldr	r2, [r1]
	.loc	2 55 36 is_stmt 0               @ ../main.c:55:36
	bics	r2, r0
	movs	r0, #51
	lsls	r0, r0, #17
	.loc	2 55 94                         @ ../main.c:55:94
	adds	r0, r2, r0
	.loc	2 55 19                         @ ../main.c:55:19
	str	r0, [r1]
	movs	r0, #225
	lsls	r1, r0, #9
	ldr	r0, __arm_cp.1_1
	.loc	2 59 5 is_stmt 1                @ ../main.c:59:5
	bl	UART_Open
.Ltmp10:
	.loc	2 60 1 epilogue_begin           @ ../main.c:60:1
	pop	{r7, pc}
.Ltmp11:
	.p2align	2
@ %bb.1:
	.loc	2 0 1 is_stmt 0                 @ ../main.c:0:1
__arm_cp.1_0:
	.long	1073741884                      @ 0x4000003c
.Lcpi_end3:
	.size	__arm_cp.1_0, .Lcpi_end3-__arm_cp.1_0
__arm_cp.1_1:
	.long	1074200576                      @ 0x40070000
.Lcpi_end4:
	.size	__arm_cp.1_1, .Lcpi_end4-__arm_cp.1_1
.Lfunc_end1:
	.size	UART0_Init, .Lfunc_end1-UART0_Init
	.cfi_endproc
	.cantunwind
	.fnend
                                        @ -- End function
	.section	.text.LED_Init,"ax",%progbits
	.hidden	LED_Init                        @ -- Begin function LED_Init
	.globl	LED_Init
	.p2align	2
	.type	LED_Init,%function
	.code	16                              @ @LED_Init
	.thumb_func
LED_Init:
.Lfunc_begin2:
	.loc	2 63 0 is_stmt 1                @ ../main.c:63:0
	.fnstart
	.cfi_startproc
@ %bb.0:
	.save	{r4, lr}
	push	{r4, lr}
	.cfi_def_cfa_offset 8
	.cfi_offset lr, -4
	.cfi_offset r4, -8
	ldr	r0, __arm_cp.2_0
.Ltmp12:
	.loc	2 65 27 prologue_end            @ ../main.c:65:27
	ldr	r1, [r0]
	ldr	r2, __arm_cp.2_1
	.loc	2 65 36 is_stmt 0               @ ../main.c:65:36
	ands	r2, r1
	.loc	2 65 19                         @ ../main.c:65:19
	str	r2, [r0]
	ldr	r0, __arm_cp.2_2
	movs	r1, #56
	movs	r4, #1
	.loc	2 69 5 is_stmt 1                @ ../main.c:69:5
	mov	r2, r4
	bl	GPIO_SetMode
.Ltmp13:
	.loc	2 0 5 is_stmt 0                 @ ../main.c:0:5
	ldr	r0, __arm_cp.2_3
	.loc	2 72 11 is_stmt 1               @ ../main.c:72:11
	str	r4, [r0, #4]
	.loc	2 73 11                         @ ../main.c:73:11
	str	r4, [r0, #8]
	.loc	2 74 11                         @ ../main.c:74:11
	str	r4, [r0]
	.loc	2 75 1 epilogue_begin           @ ../main.c:75:1
	pop	{r4, pc}
.Ltmp14:
	.p2align	2
@ %bb.1:
	.loc	2 0 1 is_stmt 0                 @ ../main.c:0:1
__arm_cp.2_0:
	.long	1073741888                      @ 0x40000040
.Lcpi_end5:
	.size	__arm_cp.2_0, .Lcpi_end5-__arm_cp.2_0
__arm_cp.2_1:
	.long	4278194175                      @ 0xff000fff
.Lcpi_end6:
	.size	__arm_cp.2_1, .Lcpi_end6-__arm_cp.2_1
__arm_cp.2_2:
	.long	1073758336                      @ 0x40004080
.Lcpi_end7:
	.size	__arm_cp.2_2, .Lcpi_end7-__arm_cp.2_2
__arm_cp.2_3:
	.long	1073760396                      @ 0x4000488c
.Lcpi_end8:
	.size	__arm_cp.2_3, .Lcpi_end8-__arm_cp.2_3
.Lfunc_end2:
	.size	LED_Init, .Lfunc_end2-LED_Init
	.cfi_endproc
	.cantunwind
	.fnend
                                        @ -- End function
	.section	.text.BTN_Init,"ax",%progbits
	.hidden	BTN_Init                        @ -- Begin function BTN_Init
	.globl	BTN_Init
	.p2align	2
	.type	BTN_Init,%function
	.code	16                              @ @BTN_Init
	.thumb_func
BTN_Init:
.Lfunc_begin3:
	.loc	2 78 0 is_stmt 1                @ ../main.c:78:0
	.fnstart
	.cfi_startproc
@ %bb.0:
	.save	{r4, r5, r6, r7, lr}
	push	{r4, r5, r6, r7, lr}
	.cfi_def_cfa_offset 20
	.cfi_offset lr, -4
	.cfi_offset r7, -8
	.cfi_offset r6, -12
	.cfi_offset r5, -16
	.cfi_offset r4, -20
	.pad	#4
	sub	sp, #4
	.cfi_def_cfa_offset 24
	movs	r4, #15
	lsls	r0, r4, #16
	ldr	r2, __arm_cp.3_0
.Ltmp15:
	.loc	2 82 27 prologue_end            @ ../main.c:82:27
	ldr	r1, [r2]
	.loc	2 82 36 is_stmt 0               @ ../main.c:82:36
	bics	r1, r0
	.loc	2 82 19                         @ ../main.c:82:19
	str	r1, [r2]
	ldr	r0, __arm_cp.3_1
	movs	r5, #16
	movs	r6, #0
	.loc	2 85 5 is_stmt 1                @ ../main.c:85:5
	mov	r1, r5
	mov	r2, r6
	bl	GPIO_SetMode
.Ltmp16:
	.loc	2 0 5 is_stmt 0                 @ ../main.c:0:5
	movs	r1, #4
	movs	r7, #1
	.loc	2 86 5 is_stmt 1                @ ../main.c:86:5
	ldr	r0, __arm_cp.3_1
	mov	r2, r7
	bl	GPIO_EnableInt
.Ltmp17:
	.loc	2 0 5 is_stmt 0                 @ ../main.c:0:5
	ldr	r0, __arm_cp.3_2
.Ltmp18:
	@DEBUG_VALUE: NVIC_EnableIRQ:IRQn <- 4
	.loc	8 631 18 is_stmt 1              @ ../../../../Library/CMSIS/Include\core_cm0.h:631:18
	str	r5, [r0]
	ldr	r1, __arm_cp.3_0
.Ltmp19:
	.loc	2 92 27                         @ ../main.c:92:27
	ldr	r0, [r1]
	.loc	2 92 36 is_stmt 0               @ ../main.c:92:36
	bics	r0, r4
	.loc	2 92 19                         @ ../main.c:92:19
	str	r0, [r1]
	ldr	r4, __arm_cp.3_1
	.loc	2 95 5 is_stmt 1                @ ../main.c:95:5
	mov	r0, r4
	mov	r1, r7
	mov	r2, r6
	bl	GPIO_SetMode
.Ltmp20:
	.loc	2 96 5                          @ ../main.c:96:5
	mov	r0, r4
	mov	r1, r6
	mov	r2, r7
	bl	GPIO_EnableInt
.Ltmp21:
	.loc	2 0 5 is_stmt 0                 @ ../main.c:0:5
	ldr	r0, __arm_cp.3_3
	movs	r1, #57
	.loc	2 99 5 is_stmt 1                @ ../main.c:99:5
	str	r1, [r0]
	.loc	2 100 5                         @ ../main.c:100:5
	ldr	r0, [r4, #20]
	orrs	r0, r5
	str	r0, [r4, #20]
	.loc	2 101 1 epilogue_begin          @ ../main.c:101:1
	add	sp, #4
	pop	{r4, r5, r6, r7, pc}
.Ltmp22:
	.p2align	2
@ %bb.1:
	.loc	2 0 1 is_stmt 0                 @ ../main.c:0:1
__arm_cp.3_0:
	.long	1073741880                      @ 0x40000038
.Lcpi_end9:
	.size	__arm_cp.3_0, .Lcpi_end9-__arm_cp.3_0
__arm_cp.3_1:
	.long	1073758272                      @ 0x40004040
.Lcpi_end10:
	.size	__arm_cp.3_1, .Lcpi_end10-__arm_cp.3_1
__arm_cp.3_2:
	.long	3758153984                      @ 0xe000e100
.Lcpi_end11:
	.size	__arm_cp.3_2, .Lcpi_end11-__arm_cp.3_2
__arm_cp.3_3:
	.long	1073759296                      @ 0x40004440
.Lcpi_end12:
	.size	__arm_cp.3_3, .Lcpi_end12-__arm_cp.3_3
.Lfunc_end3:
	.size	BTN_Init, .Lfunc_end3-BTN_Init
	.cfi_endproc
	.cantunwind
	.fnend
                                        @ -- End function
	.section	.text.main,"ax",%progbits
	.hidden	main                            @ -- Begin function main
	.globl	main
	.p2align	2
	.type	main,%function
	.code	16                              @ @main
	.thumb_func
main:
.Lfunc_begin4:
	.loc	2 106 0 is_stmt 1               @ ../main.c:106:0
	.fnstart
	.cfi_startproc
@ %bb.0:
	ldr	r7, __arm_cp.4_0
.Ltmp23:
	@DEBUG_VALUE: main:sw2_cnt <- 0
	@DEBUG_VALUE: main:sw1_cnt <- 0
.LBB4_1:                                @ =>This Inner Loop Header: Depth=1
	@DEBUG_VALUE: main:sw1_cnt <- 0
	@DEBUG_VALUE: main:sw2_cnt <- 0
	movs	r0, #89
.Ltmp24:
	.file	9 "N:\\A IC-NuvoTon Technology\\Nuvoton\\Board Support Package (BSP)\\SampleCode\\Level1_Training\\Level1_GPIO_Ctrl\\KEIL" "../../../../Library/StdDriver/inc\\sys.h"
	.loc	9 1346 22 prologue_end          @ ../../../../Library/StdDriver/inc\sys.h:1346:22
	str	r0, [r7]
	movs	r1, #22
	.loc	9 1347 22                       @ ../../../../Library/StdDriver/inc\sys.h:1347:22
	str	r1, [r7]
	movs	r2, #136
	.loc	9 1348 22                       @ ../../../../Library/StdDriver/inc\sys.h:1348:22
	str	r2, [r7]
.Ltmp25:
	.loc	9 1349 19                       @ ../../../../Library/StdDriver/inc\sys.h:1349:19
	ldr	r3, [r7]
.Ltmp26:
	.loc	9 1349 5 is_stmt 0              @ ../../../../Library/StdDriver/inc\sys.h:1349:5
	cmp	r3, #0
	bne	.LBB4_5
.Ltmp27:
@ %bb.2:                                @   in Loop: Header=BB4_1 Depth=1
	@DEBUG_VALUE: main:sw1_cnt <- 0
	@DEBUG_VALUE: main:sw2_cnt <- 0
	.loc	9 1346 22 is_stmt 1             @ ../../../../Library/StdDriver/inc\sys.h:1346:22
	str	r0, [r7]
	.loc	9 1347 22                       @ ../../../../Library/StdDriver/inc\sys.h:1347:22
	str	r1, [r7]
	.loc	9 1348 22                       @ ../../../../Library/StdDriver/inc\sys.h:1348:22
	str	r2, [r7]
.Ltmp28:
	.loc	9 1349 19                       @ ../../../../Library/StdDriver/inc\sys.h:1349:19
	ldr	r3, [r7]
.Ltmp29:
	.loc	9 1349 5 is_stmt 0              @ ../../../../Library/StdDriver/inc\sys.h:1349:5
	cmp	r3, #0
	bne	.LBB4_5
.Ltmp30:
@ %bb.3:                                @   in Loop: Header=BB4_1 Depth=1
	@DEBUG_VALUE: main:sw1_cnt <- 0
	@DEBUG_VALUE: main:sw2_cnt <- 0
	.loc	9 1346 22 is_stmt 1             @ ../../../../Library/StdDriver/inc\sys.h:1346:22
	str	r0, [r7]
	.loc	9 1347 22                       @ ../../../../Library/StdDriver/inc\sys.h:1347:22
	str	r1, [r7]
	.loc	9 1348 22                       @ ../../../../Library/StdDriver/inc\sys.h:1348:22
	str	r2, [r7]
.Ltmp31:
	.loc	9 1349 19                       @ ../../../../Library/StdDriver/inc\sys.h:1349:19
	ldr	r3, [r7]
.Ltmp32:
	.loc	9 1349 5 is_stmt 0              @ ../../../../Library/StdDriver/inc\sys.h:1349:5
	cmp	r3, #0
	bne	.LBB4_5
.Ltmp33:
@ %bb.4:                                @   in Loop: Header=BB4_1 Depth=1
	@DEBUG_VALUE: main:sw1_cnt <- 0
	@DEBUG_VALUE: main:sw2_cnt <- 0
	.loc	9 1346 22 is_stmt 1             @ ../../../../Library/StdDriver/inc\sys.h:1346:22
	str	r0, [r7]
	.loc	9 1347 22                       @ ../../../../Library/StdDriver/inc\sys.h:1347:22
	str	r1, [r7]
	.loc	9 1348 22                       @ ../../../../Library/StdDriver/inc\sys.h:1348:22
	str	r2, [r7]
.Ltmp34:
	.loc	9 1349 19                       @ ../../../../Library/StdDriver/inc\sys.h:1349:19
	ldr	r0, [r7]
.Ltmp35:
	.loc	9 1349 5 is_stmt 0              @ ../../../../Library/StdDriver/inc\sys.h:1349:5
	cmp	r0, #0
	beq	.LBB4_1
.Ltmp36:
.LBB4_5:
	@DEBUG_VALUE: main:sw1_cnt <- 0
	@DEBUG_VALUE: main:sw2_cnt <- 0
	.loc	9 0 5                           @ ../../../../Library/StdDriver/inc\sys.h:0:5
	movs	r4, #1
.Ltmp37:
	.loc	2 28 5 is_stmt 1                @ ../main.c:28:5
	mov	r0, r4
	bl	CLK_EnableXtalRC
.Ltmp38:
	.loc	2 31 5                          @ ../main.c:31:5
	mov	r0, r4
	bl	CLK_WaitClockReady
.Ltmp39:
	.loc	2 0 5 is_stmt 0                 @ ../main.c:0:5
	movs	r5, #8
	.loc	2 34 5 is_stmt 1                @ ../main.c:34:5
	mov	r0, r5
	bl	CLK_EnableXtalRC
.Ltmp40:
	.loc	2 37 5                          @ ../main.c:37:5
	mov	r0, r5
	bl	CLK_WaitClockReady
.Ltmp41:
	.loc	2 0 5 is_stmt 0                 @ ../main.c:0:5
	ldr	r0, __arm_cp.4_1
	.loc	2 40 5 is_stmt 1                @ ../main.c:40:5
	bl	CLK_SetCoreClock
.Ltmp42:
	.loc	2 0 5 is_stmt 0                 @ ../main.c:0:5
	ldr	r0, __arm_cp.4_2
	movs	r1, #17
	.loc	2 43 18 is_stmt 1               @ ../main.c:43:18
	str	r1, [r0]
	ldr	r6, __arm_cp.4_3
	.loc	2 46 5                          @ ../main.c:46:5
	mov	r0, r6
	bl	CLK_EnableModuleClock
.Ltmp43:
	.loc	2 0 5 is_stmt 0                 @ ../main.c:0:5
	movs	r5, #0
	.loc	2 49 5 is_stmt 1                @ ../main.c:49:5
	mov	r0, r6
	mov	r1, r5
	mov	r2, r5
	bl	CLK_SetModuleClock
.Ltmp44:
	.loc	9 1362 18                       @ ../../../../Library/StdDriver/inc\sys.h:1362:18
	str	r5, [r7]
	movs	r0, #255
	lsls	r0, r0, #16
	ldr	r6, __arm_cp.4_4
.Ltmp45:
	.loc	2 55 27                         @ ../main.c:55:27
	ldr	r1, [r6]
	.loc	2 55 36 is_stmt 0               @ ../main.c:55:36
	bics	r1, r0
	movs	r0, #51
	lsls	r0, r0, #17
	.loc	2 55 94                         @ ../main.c:55:94
	adds	r0, r1, r0
	.loc	2 55 19                         @ ../main.c:55:19
	str	r0, [r6]
	movs	r0, #225
	lsls	r1, r0, #9
	ldr	r0, __arm_cp.4_5
	.loc	2 59 5 is_stmt 1                @ ../main.c:59:5
	bl	UART_Open
.Ltmp46:
	.loc	2 121 5                         @ ../main.c:121:5
	adr	r0, .LCPI4_6
	bl	puts
.Ltmp47:
	.loc	2 122 5                         @ ../main.c:122:5
	adr	r0, .LCPI4_7
	bl	puts
.Ltmp48:
	.loc	2 123 5                         @ ../main.c:123:5
	adr	r0, .LCPI4_8
	bl	puts
.Ltmp49:
	.loc	2 65 27                         @ ../main.c:65:27
	ldr	r0, [r6, #4]
	ldr	r1, __arm_cp.4_9
	.loc	2 65 36 is_stmt 0               @ ../main.c:65:36
	ands	r1, r0
	.loc	2 65 19                         @ ../main.c:65:19
	str	r1, [r6, #4]
	ldr	r0, __arm_cp.4_10
	movs	r1, #56
	.loc	2 69 5 is_stmt 1                @ ../main.c:69:5
	mov	r2, r4
	bl	GPIO_SetMode
.Ltmp50:
	.loc	2 0 5 is_stmt 0                 @ ../main.c:0:5
	ldr	r0, __arm_cp.4_11
	.loc	2 72 11 is_stmt 1               @ ../main.c:72:11
	str	r4, [r0, #4]
	.loc	2 73 11                         @ ../main.c:73:11
	str	r4, [r0, #8]
	.loc	2 74 11                         @ ../main.c:74:11
	str	r4, [r0]
.Ltmp51:
.LBB4_6:                                @ =>This Inner Loop Header: Depth=1
	@DEBUG_VALUE: main:sw1_cnt <- 0
	@DEBUG_VALUE: main:sw2_cnt <- 0
	.loc	2 149 10                        @ ../main.c:149:10
	str	r4, [r0]
	.loc	2 150 10                        @ ../main.c:150:10
	str	r4, [r0, #8]
	.loc	2 151 10                        @ ../main.c:151:10
	str	r5, [r0, #4]
	.loc	2 149 10                        @ ../main.c:149:10
	str	r4, [r0]
	.loc	2 150 10                        @ ../main.c:150:10
	str	r4, [r0, #8]
	.loc	2 151 10                        @ ../main.c:151:10
	str	r5, [r0, #4]
	.loc	2 149 10                        @ ../main.c:149:10
	str	r4, [r0]
	.loc	2 150 10                        @ ../main.c:150:10
	str	r4, [r0, #8]
	.loc	2 151 10                        @ ../main.c:151:10
	str	r5, [r0, #4]
	.loc	2 149 10                        @ ../main.c:149:10
	str	r4, [r0]
	.loc	2 150 10                        @ ../main.c:150:10
	str	r4, [r0, #8]
	.loc	2 151 10                        @ ../main.c:151:10
	str	r5, [r0, #4]
.Ltmp52:
	.loc	2 131 5                         @ ../main.c:131:5
	b	.LBB4_6
.Ltmp53:
	.p2align	2
@ %bb.7:
	.loc	2 0 5 is_stmt 0                 @ ../main.c:0:5
__arm_cp.4_0:
	.long	1073742080                      @ 0x40000100
.Lcpi_end13:
	.size	__arm_cp.4_0, .Lcpi_end13-__arm_cp.4_0
__arm_cp.4_1:
	.long	48000000                        @ 0x2dc6c00
.Lcpi_end14:
	.size	__arm_cp.4_1, .Lcpi_end14-__arm_cp.4_1
__arm_cp.4_2:
	.long	1073742388                      @ 0x40000234
.Lcpi_end15:
	.size	__arm_cp.4_2, .Lcpi_end15-__arm_cp.4_2
__arm_cp.4_3:
	.long	1602239760                      @ 0x5f803d10
.Lcpi_end16:
	.size	__arm_cp.4_3, .Lcpi_end16-__arm_cp.4_3
__arm_cp.4_4:
	.long	1073741884                      @ 0x4000003c
.Lcpi_end17:
	.size	__arm_cp.4_4, .Lcpi_end17-__arm_cp.4_4
__arm_cp.4_5:
	.long	1074200576                      @ 0x40070000
.Lcpi_end18:
	.size	__arm_cp.4_5, .Lcpi_end18-__arm_cp.4_5
.LCPI4_6:
.Lstr:
	.asciz	"+---------------------------------------+\000\000"
.LCPI4_7:
.Lstr.4:
	.asciz	"|    Level1 GPIO control Sample Code    |\000\000"
.LCPI4_8:
.Lstr.5:
	.asciz	"+---------------------------------------+\n\000"
__arm_cp.4_9:
	.long	4278194175                      @ 0xff000fff
.Lcpi_end19:
	.size	__arm_cp.4_9, .Lcpi_end19-__arm_cp.4_9
__arm_cp.4_10:
	.long	1073758336                      @ 0x40004080
.Lcpi_end20:
	.size	__arm_cp.4_10, .Lcpi_end20-__arm_cp.4_10
__arm_cp.4_11:
	.long	1073760396                      @ 0x4000488c
.Lcpi_end21:
	.size	__arm_cp.4_11, .Lcpi_end21-__arm_cp.4_11
.Lfunc_end4:
	.size	main, .Lfunc_end4-main
	.cfi_endproc
	.cantunwind
	.fnend
                                        @ -- End function
	.section	.text.GPABGH_IRQHandler,"ax",%progbits
	.hidden	GPABGH_IRQHandler               @ -- Begin function GPABGH_IRQHandler
	.globl	GPABGH_IRQHandler
	.p2align	2
	.type	GPABGH_IRQHandler,%function
	.code	16                              @ @GPABGH_IRQHandler
	.thumb_func
GPABGH_IRQHandler:
.Lfunc_begin5:
	.loc	2 174 0 is_stmt 1               @ ../main.c:174:0
	.fnstart
	.cfi_startproc
@ %bb.0:
	.save	{r7, lr}
	push	{r7, lr}
	.cfi_def_cfa_offset 8
	.cfi_offset lr, -4
	.cfi_offset r7, -8
	ldr	r0, __arm_cp.5_0
.Ltmp54:
	.loc	2 176 8 prologue_end            @ ../main.c:176:8
	ldr	r1, [r0]
.Ltmp55:
	.loc	2 176 8 is_stmt 0               @ ../main.c:176:8
	lsls	r1, r1, #27
	bmi	.LBB5_3
@ %bb.1:
.Ltmp56:
	.loc	2 184 13 is_stmt 1              @ ../main.c:184:13
	ldr	r1, [r0]
.Ltmp57:
	.loc	2 184 13 is_stmt 0              @ ../main.c:184:13
	lsls	r1, r1, #31
	bne	.LBB5_4
@ %bb.2:
.Ltmp58:
	.loc	2 194 26 is_stmt 1              @ ../main.c:194:26
	ldr	r1, [r0]
	.loc	2 194 20 is_stmt 0              @ ../main.c:194:20
	str	r1, [r0]
	.loc	2 195 9 is_stmt 1               @ ../main.c:195:9
	adr	r0, .LCPI5_4
	bl	puts
.Ltmp59:
	.loc	2 197 1 epilogue_begin          @ ../main.c:197:1
	pop	{r7, pc}
.LBB5_3:
	.loc	2 0 1 is_stmt 0                 @ ../main.c:0:1
	ldr	r1, __arm_cp.5_1
.Ltmp60:
	.loc	2 178 15 is_stmt 1              @ ../main.c:178:15
	ldr	r2, [r1]
	movs	r3, #1
	eors	r3, r2
	str	r3, [r1]
	.loc	2 179 20                        @ ../main.c:179:20
	ldr	r1, __arm_cp.5_2
	ldr	r2, [r1]
	adds	r2, r2, #1
	str	r2, [r1]
	movs	r1, #16
	.loc	2 181 9                         @ ../main.c:181:9
	str	r1, [r0]
.Ltmp61:
	.loc	2 197 1 epilogue_begin          @ ../main.c:197:1
	pop	{r7, pc}
.LBB5_4:
	.loc	2 0 1 is_stmt 0                 @ ../main.c:0:1
	ldr	r1, __arm_cp.5_1
.Ltmp62:
	.loc	2 186 15 is_stmt 1              @ ../main.c:186:15
	ldr	r2, [r1, #4]
	movs	r3, #1
	eors	r2, r3
	str	r2, [r1, #4]
	.loc	2 187 20                        @ ../main.c:187:20
	ldr	r1, __arm_cp.5_3
	ldr	r2, [r1]
	adds	r2, r2, #1
	str	r2, [r1]
	.loc	2 189 9                         @ ../main.c:189:9
	str	r3, [r0]
.Ltmp63:
	.loc	2 197 1 epilogue_begin          @ ../main.c:197:1
	pop	{r7, pc}
.Ltmp64:
	.p2align	2
@ %bb.5:
	.loc	2 0 1 is_stmt 0                 @ ../main.c:0:1
__arm_cp.5_0:
	.long	1073758304                      @ 0x40004060
.Lcpi_end22:
	.size	__arm_cp.5_0, .Lcpi_end22-__arm_cp.5_0
__arm_cp.5_1:
	.long	1073760400                      @ 0x40004890
.Lcpi_end23:
	.size	__arm_cp.5_1, .Lcpi_end23-__arm_cp.5_1
__arm_cp.5_2:
	.long	sw1_int_cnt
.Lcpi_end24:
	.size	__arm_cp.5_2, .Lcpi_end24-__arm_cp.5_2
__arm_cp.5_3:
	.long	sw2_int_cnt
.Lcpi_end25:
	.size	__arm_cp.5_3, .Lcpi_end25-__arm_cp.5_3
.LCPI5_4:
.Lstr.6:
	.asciz	"Un-expected interrupts."
.Lfunc_end5:
	.size	GPABGH_IRQHandler, .Lfunc_end5-GPABGH_IRQHandler
	.cfi_endproc
	.cantunwind
	.fnend
                                        @ -- End function
	.hidden	sw1_int_cnt                     @ @sw1_int_cnt
	.type	sw1_int_cnt,%object
	.section	.bss.sw1_int_cnt,"aw",%nobits
	.globl	sw1_int_cnt
	.p2align	2, 0x0
sw1_int_cnt:
	.long	0                               @ 0x0
	.size	sw1_int_cnt, 4

	.hidden	sw2_int_cnt                     @ @sw2_int_cnt
	.type	sw2_int_cnt,%object
	.section	.bss.sw2_int_cnt,"aw",%nobits
	.globl	sw2_int_cnt
	.p2align	2, 0x0
sw2_int_cnt:
	.long	0                               @ 0x0
	.size	sw2_int_cnt, 4

	.type	__ARM_use_no_argv,%object       @ @__ARM_use_no_argv
	.section	.ARM.use_no_argv,"awR",%progbits,unique,1
	.globl	__ARM_use_no_argv
	.p2align	2, 0x0
__ARM_use_no_argv:
	.long	1                               @ 0x1
	.size	__ARM_use_no_argv, 4

	.section	".note.GNU-stack","",%progbits
	.eabi_attribute	30, 1	@ Tag_ABI_optimization_goals
	.ARM_attribute	16, 1	@ Tag_AV_eba